; Function Attrs: mustprogress nofree norecurse nosync nounwind willreturn memory(argmem: write) uwtable
define void @_ZN3net15SpdyHeaderBlockC2Ev(ptr noundef nonnull align 8 dereferenceable(88) initializes((32, 40)) %0) unnamed_addr #0 align 2 personality ptr @__gxx_personality_v0 {
  %2 = getelementptr inbounds nuw i8, ptr %0, i64 32
  store i64 0, ptr %2, align 8
  %3 = getelementptr inbounds nuw i8, ptr %0, i64 48
  store ptr %3, ptr %0, align 8, !tbaa !40
  %4 = getelementptr inbounds nuw i8, ptr %0, i64 8
  store i64 1, ptr %4, align 8, !tbaa !39
  %5 = getelementptr inbounds nuw i8, ptr %0, i64 16
  tail call void @llvm.memset.p0.i64(ptr noundef nonnull align 8 dereferenceable(16) %5, i8 0, i64 16, i1 false)
  store float 1.000000e+00, ptr %2, align 8, !tbaa !54
  %6 = getelementptr inbounds nuw i8, ptr %0, i64 40
  %7 = getelementptr inbounds nuw i8, ptr %0, i64 56
  %8 = getelementptr inbounds nuw i8, ptr %0, i64 64
  tail call void @llvm.memset.p0.i64(ptr noundef nonnull align 8 dereferenceable(16) %6, i8 0, i64 16, i1 false)
  store ptr %7, ptr %8, align 8, !tbaa !50
  store ptr %7, ptr %7, align 8, !tbaa !55
  %9 = getelementptr inbounds nuw i8, ptr %0, i64 72
  tail call void @llvm.memset.p0.i64(ptr noundef nonnull align 8 dereferenceable(16) %9, i8 0, i64 16, i1 false)
  ret void
}